; Function Attrs: mustprogress nofree norecurse nosync nounwind willreturn memory(argmem: write) uwtable
define dso_local noundef zeroext i1 @_ZN4base9ListValue9GetAsListEPPS0_(ptr noundef nonnull align 8 dereferenceable(40) %this, ptr noundef writeonly %out_value) unnamed_addr #6 align 2 {
entry:
  %tobool.not = icmp eq ptr %out_value, null
  br i1 %tobool.not, label %if.end, label %if.then

if.then:                                          ; preds = %entry
  store ptr %this, ptr %out_value, align 8
  br label %if.end

if.end:                                           ; preds = %if.then, %entry
  ret i1 true
}